; Function Attrs: mustprogress nofree norecurse nosync nounwind willreturn memory(read, inaccessiblemem: none) uwtable
define internal range(i32 0, 100) i32 @cri_probe(ptr noundef readonly captures(none) %0) #8 {
  %2 = getelementptr inbounds nuw i8, ptr %0, i64 8
  %3 = load ptr, ptr %2, align 8, !tbaa !90
  %4 = load i32, ptr %3, align 1, !tbaa !68
  %5 = icmp eq i32 %4, 1
  br i1 %5, label %6, label %14

6:                                                ; preds = %1
  %7 = getelementptr inbounds nuw i8, ptr %3, i64 4
  %8 = load i32, ptr %7, align 1, !tbaa !68
  %9 = icmp eq i32 %8, 4
  br i1 %9, label %10, label %14

10:                                               ; preds = %6
  %11 = getelementptr inbounds nuw i8, ptr %3, i64 8
  %12 = load i32, ptr %11, align 1, !tbaa !68
  %13 = icmp eq i32 %12, 1128486468
  br i1 %13, label %15, label %14

14:                                               ; preds = %10, %6, %1
  br label %15

15:                                               ; preds = %10, %14
  %.0 = phi i32 [ 0, %14 ], [ 99, %10 ]
  ret i32 %.0
}